target datalayout = "e-m:e-p270:32:32-p271:32:32-p272:64:64-i64:64-i128:128-f80:128-n8:16:32:64-S128"
target triple = "x86_64-pc-linux-gnu"

%struct.ClusterInfo = type { %struct.ControlData, ptr, %struct.DbInfoArr, ptr, ptr, ptr, ptr, ptr, i16, i32, [64 x i8], i32, ptr, i32 }
%struct.ControlData = type { i32, i32, [25 x i8], i32, i32, i32, i32, i32, i32, i32, i32, i32, i32, i32, i32, i32, i32, i32, i32, i8, i8, i32 }
%struct.DbInfoArr = type { ptr, i32 }
%struct.OSInfo = type { ptr, ptr, i8, ptr, i32, ptr, i32, ptr }
%struct.PQExpBufferData = type { ptr, i64, i64 }

@new_cluster = external global %struct.ClusterInfo, align 8
@os_info = external global %struct.OSInfo, align 8
@.str.4 = private unnamed_addr constant [4 x i8] c"-U \00", align 1
@.str.5 = private unnamed_addr constant [149 x i8] c"Optimizer statistics are not transferred by pg_upgrade.\0AOnce you start the new server, consider running:\0A    %s/vacuumdb %s--all --analyze-in-stages\00", align 1
@.str.6 = private unnamed_addr constant [69 x i8] c"Running this script will delete the old cluster's data files:\0A    %s\00", align 1
@.str.7 = private unnamed_addr constant [224 x i8] c"Could not create a script to delete the old cluster's data files\0Abecause user-defined tablespaces or the new cluster's data directory\0Aexist in the old cluster directory.  The old cluster's contents must\0Abe deleted manually.\00", align 1

; Function Attrs: nounwind uwtable
define dso_local void @output_completion_banner(ptr noundef %0) #0 {
  %2 = alloca ptr, align 8
  %3 = alloca %struct.PQExpBufferData, align 8
  store ptr %0, ptr %2, align 8
  call void @llvm.lifetime.start.p0(i64 24, ptr %3) #9
  call void @initPQExpBuffer(ptr noundef %3)
  %4 = load i8, ptr getelementptr inbounds nuw (%struct.OSInfo, ptr @os_info, i32 0, i32 2), align 8, !range !4, !noundef !5
  %5 = trunc i8 %4 to i1
  br i1 %5, label %6, label %8

6:                                                ; preds = %1
  call void @appendPQExpBufferStr(ptr noundef %3, ptr noundef @.str.4)
  %7 = load ptr, ptr getelementptr inbounds nuw (%struct.OSInfo, ptr @os_info, i32 0, i32 1), align 8
  call void @appendShellString(ptr noundef %3, ptr noundef %7)
  call void @appendPQExpBufferChar(ptr noundef %3, i8 noundef signext 32)
  br label %8

8:                                                ; preds = %6, %1
  %9 = load ptr, ptr getelementptr inbounds nuw (%struct.ClusterInfo, ptr @new_cluster, i32 0, i32 5), align 8
  %10 = getelementptr inbounds nuw %struct.PQExpBufferData, ptr %3, i32 0, i32 0
  %11 = load ptr, ptr %10, align 8
  call void (i32, ptr, ...) @pg_log(i32 noundef 3, ptr noundef @.str.5, ptr noundef %9, ptr noundef %11)
  %12 = load ptr, ptr %2, align 8
  %13 = icmp ne ptr %12, null
  br i1 %13, label %14, label %16

14:                                               ; preds = %8
  %15 = load ptr, ptr %2, align 8
  call void (i32, ptr, ...) @pg_log(i32 noundef 3, ptr noundef @.str.6, ptr noundef %15)
  br label %17

16:                                               ; preds = %8
  call void (i32, ptr, ...) @pg_log(i32 noundef 3, ptr noundef @.str.7)
  br label %17

17:                                               ; preds = %16, %14
  call void @termPQExpBuffer(ptr noundef %3)
  call void @llvm.lifetime.end.p0(i64 24, ptr %3) #9
  ret void
}