; Function Attrs: nounwind uwtable
define dso_local void @output_completion_banner(ptr noundef %0) local_unnamed_addr #0 {
  %2 = alloca %struct.PQExpBufferData, align 8
  call void @llvm.lifetime.start.p0(i64 24, ptr nonnull %2) #10
  call void @initPQExpBuffer(ptr noundef nonnull %2) #10
  %3 = load i8, ptr getelementptr inbounds nuw (i8, ptr @os_info, i64 16), align 8, !range !4, !noundef !5
  %4 = trunc nuw i8 %3 to i1
  br i1 %4, label %5, label %7

5:                                                ; preds = %1
  call void @appendPQExpBufferStr(ptr noundef nonnull %2, ptr noundef nonnull @.str.4) #10
  %6 = load ptr, ptr getelementptr inbounds nuw (i8, ptr @os_info, i64 8), align 8
  call void @appendShellString(ptr noundef nonnull %2, ptr noundef %6) #10
  call void @appendPQExpBufferChar(ptr noundef nonnull %2, i8 noundef signext 32) #10
  br label %7

7:                                                ; preds = %5, %1
  %8 = load ptr, ptr getelementptr inbounds nuw (i8, ptr @new_cluster, i64 152), align 8
  %9 = load ptr, ptr %2, align 8
  call void (i32, ptr, ...) @pg_log(i32 noundef 3, ptr noundef nonnull @.str.5, ptr noundef %8, ptr noundef %9) #10
  %.not = icmp eq ptr %0, null
  br i1 %.not, label %11, label %10

10:                                               ; preds = %7
  call void (i32, ptr, ...) @pg_log(i32 noundef 3, ptr noundef nonnull @.str.6, ptr noundef nonnull %0) #10
  br label %12

11:                                               ; preds = %7
  call void (i32, ptr, ...) @pg_log(i32 noundef 3, ptr noundef nonnull @.str.7) #10
  br label %12

12:                                               ; preds = %11, %10
  call void @termPQExpBuffer(ptr noundef nonnull %2) #10
  call void @llvm.lifetime.end.p0(i64 24, ptr nonnull %2) #10
  ret void
}